target datalayout = "e-m:e-p270:32:32-p271:32:32-p272:64:64-i64:64-i128:128-f80:128-n8:16:32:64-S128"
target triple = "x86_64-pc-linux-gnu"

%struct.Node = type { i32 }
%struct.PlanState = type { i32, ptr, ptr, ptr, ptr, ptr, ptr, ptr, ptr, ptr, ptr, ptr, ptr, ptr, ptr, ptr, ptr, ptr, i8, ptr, ptr, ptr, ptr, ptr, i8, i8, i8, i8, i8, i8, i8, i8 }
%struct.Plan = type { i32, i32, double, double, double, i32, i8, i8, i8, i32, ptr, ptr, ptr, ptr, ptr, ptr, ptr }
%struct.Scan = type { %struct.Plan, i32 }
%struct.ForeignScan = type { %struct.Scan, i32, i32, i32, i32, ptr, ptr, ptr, ptr, ptr, ptr, i8 }
%struct.CustomScan = type { %struct.Scan, i32, ptr, ptr, ptr, ptr, ptr, ptr }
%struct.ModifyTable = type { %struct.Plan, i32, i8, i32, i32, i8, ptr, ptr, ptr, ptr, ptr, ptr, ptr, ptr, ptr, i32, i32, ptr, ptr, ptr, ptr, i32, ptr, ptr, ptr }
%struct.Append = type { %struct.Plan, ptr, ptr, i32, i32, i32 }
%struct.MergeAppend = type { %struct.Plan, ptr, ptr, i32, ptr, ptr, ptr, ptr, i32 }

; Function Attrs: nounwind uwtable
define internal zeroext i1 @ExplainPreScanNode(ptr noundef %0, ptr noundef %1) #0 {
  %3 = alloca ptr, align 8
  %4 = alloca ptr, align 8
  %5 = alloca ptr, align 8
  store ptr %0, ptr %3, align 8
  store ptr %1, ptr %4, align 8
  call void @llvm.lifetime.start.p0(i64 8, ptr %5) #10
  %6 = load ptr, ptr %3, align 8
  %7 = getelementptr inbounds nuw %struct.PlanState, ptr %6, i32 0, i32 1
  %8 = load ptr, ptr %7, align 8
  store ptr %8, ptr %5, align 8
  %9 = load ptr, ptr %5, align 8
  %10 = getelementptr inbounds nuw %struct.Node, ptr %9, i32 0, i32 0
  %11 = load i32, ptr %10, align 4
  switch i32 %11, label %73 [
    i32 338, label %12
    i32 339, label %12
    i32 340, label %12
    i32 341, label %12
    i32 343, label %12
    i32 344, label %12
    i32 345, label %12
    i32 346, label %12
    i32 347, label %12
    i32 349, label %12
    i32 348, label %12
    i32 350, label %12
    i32 351, label %12
    i32 352, label %12
    i32 353, label %20
    i32 354, label %28
    i32 332, label %36
    i32 333, label %57
    i32 334, label %65
  ]

12:                                               ; preds = %2, %2, %2, %2, %2, %2, %2, %2, %2, %2, %2, %2, %2, %2
  %13 = load ptr, ptr %4, align 8
  %14 = load ptr, ptr %13, align 8
  %15 = load ptr, ptr %5, align 8
  %16 = getelementptr inbounds nuw %struct.Scan, ptr %15, i32 0, i32 1
  %17 = load i32, ptr %16, align 8
  %18 = call ptr @bms_add_member(ptr noundef %14, i32 noundef %17)
  %19 = load ptr, ptr %4, align 8
  store ptr %18, ptr %19, align 8
  br label %74

20:                                               ; preds = %2
  %21 = load ptr, ptr %4, align 8
  %22 = load ptr, ptr %21, align 8
  %23 = load ptr, ptr %5, align 8
  %24 = getelementptr inbounds nuw %struct.ForeignScan, ptr %23, i32 0, i32 10
  %25 = load ptr, ptr %24, align 8
  %26 = call ptr @bms_add_members(ptr noundef %22, ptr noundef %25)
  %27 = load ptr, ptr %4, align 8
  store ptr %26, ptr %27, align 8
  br label %74

28:                                               ; preds = %2
  %29 = load ptr, ptr %4, align 8
  %30 = load ptr, ptr %29, align 8
  %31 = load ptr, ptr %5, align 8
  %32 = getelementptr inbounds nuw %struct.CustomScan, ptr %31, i32 0, i32 6
  %33 = load ptr, ptr %32, align 8
  %34 = call ptr @bms_add_members(ptr noundef %30, ptr noundef %33)
  %35 = load ptr, ptr %4, align 8
  store ptr %34, ptr %35, align 8
  br label %74

36:                                               ; preds = %2
  %37 = load ptr, ptr %4, align 8
  %38 = load ptr, ptr %37, align 8
  %39 = load ptr, ptr %5, align 8
  %40 = getelementptr inbounds nuw %struct.ModifyTable, ptr %39, i32 0, i32 3
  %41 = load i32, ptr %40, align 8
  %42 = call ptr @bms_add_member(ptr noundef %38, i32 noundef %41)
  %43 = load ptr, ptr %4, align 8
  store ptr %42, ptr %43, align 8
  %44 = load ptr, ptr %5, align 8
  %45 = getelementptr inbounds nuw %struct.ModifyTable, ptr %44, i32 0, i32 21
  %46 = load i32, ptr %45, align 8
  %47 = icmp ne i32 %46, 0
  br i1 %47, label %48, label %56

48:                                               ; preds = %36
  %49 = load ptr, ptr %4, align 8
  %50 = load ptr, ptr %49, align 8
  %51 = load ptr, ptr %5, align 8
  %52 = getelementptr inbounds nuw %struct.ModifyTable, ptr %51, i32 0, i32 21
  %53 = load i32, ptr %52, align 8
  %54 = call ptr @bms_add_member(ptr noundef %50, i32 noundef %53)
  %55 = load ptr, ptr %4, align 8
  store ptr %54, ptr %55, align 8
  br label %56

56:                                               ; preds = %48, %36
  br label %74

57:                                               ; preds = %2
  %58 = load ptr, ptr %4, align 8
  %59 = load ptr, ptr %58, align 8
  %60 = load ptr, ptr %5, align 8
  %61 = getelementptr inbounds nuw %struct.Append, ptr %60, i32 0, i32 1
  %62 = load ptr, ptr %61, align 8
  %63 = call ptr @bms_add_members(ptr noundef %59, ptr noundef %62)
  %64 = load ptr, ptr %4, align 8
  store ptr %63, ptr %64, align 8
  br label %74

65:                                               ; preds = %2
  %66 = load ptr, ptr %4, align 8
  %67 = load ptr, ptr %66, align 8
  %68 = load ptr, ptr %5, align 8
  %69 = getelementptr inbounds nuw %struct.MergeAppend, ptr %68, i32 0, i32 1
  %70 = load ptr, ptr %69, align 8
  %71 = call ptr @bms_add_members(ptr noundef %67, ptr noundef %70)
  %72 = load ptr, ptr %4, align 8
  store ptr %71, ptr %72, align 8
  br label %74

73:                                               ; preds = %2
  br label %74

74:                                               ; preds = %73, %65, %57, %56, %28, %20, %12
  %75 = load ptr, ptr %3, align 8
  %76 = load ptr, ptr %4, align 8
  %77 = call zeroext i1 @planstate_tree_walker_impl(ptr noundef %75, ptr noundef @ExplainPreScanNode, ptr noundef %76)
  call void @llvm.lifetime.end.p0(i64 8, ptr %5) #10
  ret i1 %77
}