; Function Attrs: nounwind uwtable
define internal zeroext i1 @ExplainPreScanNode(ptr noundef %0, ptr noundef %1) #0 {
  %3 = getelementptr inbounds nuw i8, ptr %0, i64 8
  %4 = load ptr, ptr %3, align 8
  %5 = load i32, ptr %4, align 4
  switch i32 %5, label %40 [
    i32 338, label %6
    i32 339, label %6
    i32 340, label %6
    i32 341, label %6
    i32 343, label %6
    i32 344, label %6
    i32 345, label %6
    i32 346, label %6
    i32 347, label %6
    i32 349, label %6
    i32 348, label %6
    i32 350, label %6
    i32 351, label %6
    i32 352, label %6
    i32 353, label %11
    i32 354, label %16
    i32 332, label %21
    i32 333, label %30
    i32 334, label %35
  ]

6:                                                ; preds = %2, %2, %2, %2, %2, %2, %2, %2, %2, %2, %2, %2, %2, %2
  %7 = load ptr, ptr %1, align 8
  %8 = getelementptr inbounds nuw i8, ptr %4, i64 104
  %9 = load i32, ptr %8, align 8
  %10 = tail call ptr @bms_add_member(ptr noundef %7, i32 noundef %9) #13
  br label %.sink.split

11:                                               ; preds = %2
  %12 = load ptr, ptr %1, align 8
  %13 = getelementptr inbounds nuw i8, ptr %4, i64 168
  %14 = load ptr, ptr %13, align 8
  %15 = tail call ptr @bms_add_members(ptr noundef %12, ptr noundef %14) #13
  br label %.sink.split

16:                                               ; preds = %2
  %17 = load ptr, ptr %1, align 8
  %18 = getelementptr inbounds nuw i8, ptr %4, i64 152
  %19 = load ptr, ptr %18, align 8
  %20 = tail call ptr @bms_add_members(ptr noundef %17, ptr noundef %19) #13
  br label %.sink.split

21:                                               ; preds = %2
  %22 = load ptr, ptr %1, align 8
  %23 = getelementptr inbounds nuw i8, ptr %4, i64 112
  %24 = load i32, ptr %23, align 8
  %25 = tail call ptr @bms_add_member(ptr noundef %22, i32 noundef %24) #13
  store ptr %25, ptr %1, align 8
  %26 = getelementptr inbounds nuw i8, ptr %4, i64 240
  %27 = load i32, ptr %26, align 8
  %.not = icmp eq i32 %27, 0
  br i1 %.not, label %40, label %28

28:                                               ; preds = %21
  %29 = tail call ptr @bms_add_member(ptr noundef %25, i32 noundef %27) #13
  br label %.sink.split

30:                                               ; preds = %2
  %31 = load ptr, ptr %1, align 8
  %32 = getelementptr inbounds nuw i8, ptr %4, i64 104
  %33 = load ptr, ptr %32, align 8
  %34 = tail call ptr @bms_add_members(ptr noundef %31, ptr noundef %33) #13
  br label %.sink.split

35:                                               ; preds = %2
  %36 = load ptr, ptr %1, align 8
  %37 = getelementptr inbounds nuw i8, ptr %4, i64 104
  %38 = load ptr, ptr %37, align 8
  %39 = tail call ptr @bms_add_members(ptr noundef %36, ptr noundef %38) #13
  br label %.sink.split

.sink.split:                                      ; preds = %6, %11, %16, %30, %35, %28
  %.sink = phi ptr [ %29, %28 ], [ %39, %35 ], [ %34, %30 ], [ %20, %16 ], [ %15, %11 ], [ %10, %6 ]
  store ptr %.sink, ptr %1, align 8
  br label %40

40:                                               ; preds = %.sink.split, %2, %21
  %41 = tail call zeroext i1 @planstate_tree_walker_impl(ptr noundef nonnull %0, ptr noundef nonnull @ExplainPreScanNode, ptr noundef %1) #13
  ret i1 %41
}